; Function Attrs: null_pointer_is_valid sspstrong uwtable
define internal fastcc range(i32 23, 27) i32 @dissect_rdm_pd_lock_state(ptr noundef %0, ptr noundef %1, i8 noundef zeroext %2) unnamed_addr #1 {
  switch i8 %2, label %9 [
    i8 33, label %.sink.split
    i8 48, label %4
  ]

4:                                                ; preds = %3
  br label %.sink.split

.sink.split:                                      ; preds = %3, %4
  %hf_rdm_pd_lock_state_pin_code.sink = phi ptr [ @hf_rdm_pd_lock_state_pin_code, %4 ], [ @hf_rdm_pd_lock_state_lock_state, %3 ]
  %.sink17 = phi i32 [ 2, %4 ], [ 1, %3 ]
  %hf_rdm_pd_lock_state_lock_state.sink = phi ptr [ @hf_rdm_pd_lock_state_lock_state, %4 ], [ @hf_rdm_pd_lock_state_number_of_lock_states, %3 ]
  %.sink16 = phi i32 [ 25, %4 ], [ 24, %3 ]
  %.0.ph = phi i32 [ 26, %4 ], [ 25, %3 ]
  %5 = load i32, ptr %hf_rdm_pd_lock_state_pin_code.sink, align 4
  %6 = tail call ptr @proto_tree_add_item(ptr noundef %1, i32 noundef %5, ptr noundef %0, i32 noundef 23, i32 noundef %.sink17, i32 noundef 0)
  %7 = load i32, ptr %hf_rdm_pd_lock_state_lock_state.sink, align 4
  %8 = tail call ptr @proto_tree_add_item(ptr noundef %1, i32 noundef %7, ptr noundef %0, i32 noundef %.sink16, i32 noundef 1, i32 noundef 0)
  br label %9

9:                                                ; preds = %.sink.split, %3
  %.0 = phi i32 [ 23, %3 ], [ %.0.ph, %.sink.split ]
  ret i32 %.0
}